target datalayout = "e-m:e-p270:32:32-p271:32:32-p272:64:64-i64:64-i128:128-f80:128-n8:16:32:64-S128"
target triple = "x86_64-pc-linux-gnu"

%struct.AF_CJKMetricsRec_ = type { %struct.AF_StyleMetricsRec_, i32, [2 x %struct.AF_CJKAxisRec_] }
%struct.AF_StyleMetricsRec_ = type { ptr, %struct.AF_ScalerRec_, i8, ptr }
%struct.AF_ScalerRec_ = type { ptr, i64, i64, i64, i64, i32, i32 }
%struct.AF_CJKAxisRec_ = type { i64, i64, i32, [16 x %struct.AF_WidthRec_], i64, i64, i8, i8, i32, [8 x %struct.AF_CJKBlueRec_], i64, i64 }
%struct.AF_WidthRec_ = type { i64, i64, i64 }
%struct.AF_CJKBlueRec_ = type { %struct.AF_WidthRec_, %struct.AF_WidthRec_, i32 }

; Function Attrs: inlinehint nounwind uwtable
define internal i32 @FT_MulFix_x86_64(i32 noundef %0, i32 noundef %1) #4 {
  %3 = alloca i32, align 4
  %4 = alloca i32, align 4
  %5 = alloca i64, align 8
  %6 = alloca i64, align 8
  store i32 %0, ptr %3, align 4, !tbaa !43
  store i32 %1, ptr %4, align 4, !tbaa !43
  call void @llvm.lifetime.start.p0(i64 8, ptr %5) #10
  call void @llvm.lifetime.start.p0(i64 8, ptr %6) #10
  %7 = load i32, ptr %3, align 4, !tbaa !43
  %8 = sext i32 %7 to i64
  %9 = load i32, ptr %4, align 4, !tbaa !43
  %10 = sext i32 %9 to i64
  %11 = mul nsw i64 %8, %10
  store i64 %11, ptr %5, align 8, !tbaa !303
  %12 = load i64, ptr %5, align 8, !tbaa !303
  %13 = ashr i64 %12, 63
  store i64 %13, ptr %6, align 8, !tbaa !303
  %14 = load i64, ptr %6, align 8, !tbaa !303
  %15 = add nsw i64 32768, %14
  %16 = load i64, ptr %5, align 8, !tbaa !303
  %17 = add nsw i64 %16, %15
  store i64 %17, ptr %5, align 8, !tbaa !303
  %18 = load i64, ptr %5, align 8, !tbaa !303
  %19 = ashr i64 %18, 16
  %20 = trunc i64 %19 to i32
  call void @llvm.lifetime.end.p0(i64 8, ptr %6) #10
  call void @llvm.lifetime.end.p0(i64 8, ptr %5) #10
  ret i32 %20
}

; Function Attrs: nounwind uwtable
define internal void @af_cjk_metrics_scale_dim(ptr noundef %0, ptr noundef %1, i32 noundef %2) #0 {
  %4 = alloca ptr, align 8
  %5 = alloca ptr, align 8
  %6 = alloca i32, align 4
  %7 = alloca i64, align 8
  %8 = alloca i64, align 8
  %9 = alloca ptr, align 8
  %10 = alloca i32, align 4
  %11 = alloca i32, align 4
  %12 = alloca ptr, align 8
  %13 = alloca i64, align 8
  %14 = alloca i64, align 8
  %15 = alloca i64, align 8
  store ptr %0, ptr %4, align 8, !tbaa !10
  store ptr %1, ptr %5, align 8, !tbaa !39
  store i32 %2, ptr %6, align 4, !tbaa !43
  call void @llvm.lifetime.start.p0(i64 8, ptr %7) #10
  call void @llvm.lifetime.start.p0(i64 8, ptr %8) #10
  call void @llvm.lifetime.start.p0(i64 8, ptr %9) #10
  call void @llvm.lifetime.start.p0(i64 4, ptr %10) #10
  %16 = load i32, ptr %6, align 4, !tbaa !43
  %17 = icmp eq i32 %16, 0
  br i1 %17, label %18, label %25

18:                                               ; preds = %3
  %19 = load ptr, ptr %5, align 8, !tbaa !39
  %20 = getelementptr inbounds nuw %struct.AF_ScalerRec_, ptr %19, i32 0, i32 1
  %21 = load i64, ptr %20, align 8, !tbaa !186
  store i64 %21, ptr %7, align 8, !tbaa !42
  %22 = load ptr, ptr %5, align 8, !tbaa !39
  %23 = getelementptr inbounds nuw %struct.AF_ScalerRec_, ptr %22, i32 0, i32 3
  %24 = load i64, ptr %23, align 8, !tbaa !188
  store i64 %24, ptr %8, align 8, !tbaa !42
  br label %32

25:                                               ; preds = %3
  %26 = load ptr, ptr %5, align 8, !tbaa !39
  %27 = getelementptr inbounds nuw %struct.AF_ScalerRec_, ptr %26, i32 0, i32 2
  %28 = load i64, ptr %27, align 8, !tbaa !187
  store i64 %28, ptr %7, align 8, !tbaa !42
  %29 = load ptr, ptr %5, align 8, !tbaa !39
  %30 = getelementptr inbounds nuw %struct.AF_ScalerRec_, ptr %29, i32 0, i32 4
  %31 = load i64, ptr %30, align 8, !tbaa !189
  store i64 %31, ptr %8, align 8, !tbaa !42
  br label %32

32:                                               ; preds = %25, %18
  %33 = load ptr, ptr %4, align 8, !tbaa !10
  %34 = getelementptr inbounds nuw %struct.AF_CJKMetricsRec_, ptr %33, i32 0, i32 2
  %35 = load i32, ptr %6, align 4, !tbaa !43
  %36 = zext i32 %35 to i64
  %37 = getelementptr inbounds nuw [2 x %struct.AF_CJKAxisRec_], ptr %34, i64 0, i64 %36
  store ptr %37, ptr %9, align 8, !tbaa !190
  %38 = load ptr, ptr %9, align 8, !tbaa !190
  %39 = getelementptr inbounds nuw %struct.AF_CJKAxisRec_, ptr %38, i32 0, i32 10
  %40 = load i64, ptr %39, align 8, !tbaa !309
  %41 = load i64, ptr %7, align 8, !tbaa !42
  %42 = icmp eq i64 %40, %41
  br i1 %42, label %43, label %50

43:                                               ; preds = %32
  %44 = load ptr, ptr %9, align 8, !tbaa !190
  %45 = getelementptr inbounds nuw %struct.AF_CJKAxisRec_, ptr %44, i32 0, i32 11
  %46 = load i64, ptr %45, align 8, !tbaa !310
  %47 = load i64, ptr %8, align 8, !tbaa !42
  %48 = icmp eq i64 %46, %47
  br i1 %48, label %49, label %50

49:                                               ; preds = %43
  store i32 1, ptr %11, align 4
  br label %221

50:                                               ; preds = %43, %32
  %51 = load i64, ptr %7, align 8, !tbaa !42
  %52 = load ptr, ptr %9, align 8, !tbaa !190
  %53 = getelementptr inbounds nuw %struct.AF_CJKAxisRec_, ptr %52, i32 0, i32 10
  store i64 %51, ptr %53, align 8, !tbaa !309
  %54 = load i64, ptr %8, align 8, !tbaa !42
  %55 = load ptr, ptr %9, align 8, !tbaa !190
  %56 = getelementptr inbounds nuw %struct.AF_CJKAxisRec_, ptr %55, i32 0, i32 11
  store i64 %54, ptr %56, align 8, !tbaa !310
  %57 = load i64, ptr %7, align 8, !tbaa !42
  %58 = load ptr, ptr %9, align 8, !tbaa !190
  %59 = getelementptr inbounds nuw %struct.AF_CJKAxisRec_, ptr %58, i32 0, i32 0
  store i64 %57, ptr %59, align 8, !tbaa !50
  %60 = load i64, ptr %8, align 8, !tbaa !42
  %61 = load ptr, ptr %9, align 8, !tbaa !190
  %62 = getelementptr inbounds nuw %struct.AF_CJKAxisRec_, ptr %61, i32 0, i32 1
  store i64 %60, ptr %62, align 8, !tbaa !56
  store i32 0, ptr %10, align 4, !tbaa !43
  br label %63

63:                                               ; preds = %217, %50
  %64 = load i32, ptr %10, align 4, !tbaa !43
  %65 = load ptr, ptr %9, align 8, !tbaa !190
  %66 = getelementptr inbounds nuw %struct.AF_CJKAxisRec_, ptr %65, i32 0, i32 8
  %67 = load i32, ptr %66, align 4, !tbaa !227
  %68 = icmp ult i32 %64, %67
  br i1 %68, label %69, label %220

69:                                               ; preds = %63
  call void @llvm.lifetime.start.p0(i64 8, ptr %12) #10
  %70 = load ptr, ptr %9, align 8, !tbaa !190
  %71 = getelementptr inbounds nuw %struct.AF_CJKAxisRec_, ptr %70, i32 0, i32 9
  %72 = load i32, ptr %10, align 4, !tbaa !43
  %73 = zext i32 %72 to i64
  %74 = getelementptr inbounds nuw [8 x %struct.AF_CJKBlueRec_], ptr %71, i64 0, i64 %73
  store ptr %74, ptr %12, align 8, !tbaa !228
  call void @llvm.lifetime.start.p0(i64 8, ptr %13) #10
  %75 = load ptr, ptr %12, align 8, !tbaa !228
  %76 = getelementptr inbounds nuw %struct.AF_CJKBlueRec_, ptr %75, i32 0, i32 0
  %77 = getelementptr inbounds nuw %struct.AF_WidthRec_, ptr %76, i32 0, i32 0
  %78 = load i64, ptr %77, align 8, !tbaa !311
  %79 = trunc i64 %78 to i32
  %80 = load i64, ptr %7, align 8, !tbaa !42
  %81 = trunc i64 %80 to i32
  %82 = call i32 @FT_MulFix_x86_64(i32 noundef %79, i32 noundef %81)
  %83 = sext i32 %82 to i64
  %84 = load i64, ptr %8, align 8, !tbaa !42
  %85 = add nsw i64 %83, %84
  %86 = load ptr, ptr %12, align 8, !tbaa !228
  %87 = getelementptr inbounds nuw %struct.AF_CJKBlueRec_, ptr %86, i32 0, i32 0
  %88 = getelementptr inbounds nuw %struct.AF_WidthRec_, ptr %87, i32 0, i32 1
  store i64 %85, ptr %88, align 8, !tbaa !312
  %89 = load ptr, ptr %12, align 8, !tbaa !228
  %90 = getelementptr inbounds nuw %struct.AF_CJKBlueRec_, ptr %89, i32 0, i32 0
  %91 = getelementptr inbounds nuw %struct.AF_WidthRec_, ptr %90, i32 0, i32 1
  %92 = load i64, ptr %91, align 8, !tbaa !312
  %93 = load ptr, ptr %12, align 8, !tbaa !228
  %94 = getelementptr inbounds nuw %struct.AF_CJKBlueRec_, ptr %93, i32 0, i32 0
  %95 = getelementptr inbounds nuw %struct.AF_WidthRec_, ptr %94, i32 0, i32 2
  store i64 %92, ptr %95, align 8, !tbaa !313
  %96 = load ptr, ptr %12, align 8, !tbaa !228
  %97 = getelementptr inbounds nuw %struct.AF_CJKBlueRec_, ptr %96, i32 0, i32 1
  %98 = getelementptr inbounds nuw %struct.AF_WidthRec_, ptr %97, i32 0, i32 0
  %99 = load i64, ptr %98, align 8, !tbaa !314
  %100 = trunc i64 %99 to i32
  %101 = load i64, ptr %7, align 8, !tbaa !42
  %102 = trunc i64 %101 to i32
  %103 = call i32 @FT_MulFix_x86_64(i32 noundef %100, i32 noundef %102)
  %104 = sext i32 %103 to i64
  %105 = load i64, ptr %8, align 8, !tbaa !42
  %106 = add nsw i64 %104, %105
  %107 = load ptr, ptr %12, align 8, !tbaa !228
  %108 = getelementptr inbounds nuw %struct.AF_CJKBlueRec_, ptr %107, i32 0, i32 1
  %109 = getelementptr inbounds nuw %struct.AF_WidthRec_, ptr %108, i32 0, i32 1
  store i64 %106, ptr %109, align 8, !tbaa !315
  %110 = load ptr, ptr %12, align 8, !tbaa !228
  %111 = getelementptr inbounds nuw %struct.AF_CJKBlueRec_, ptr %110, i32 0, i32 1
  %112 = getelementptr inbounds nuw %struct.AF_WidthRec_, ptr %111, i32 0, i32 1
  %113 = load i64, ptr %112, align 8, !tbaa !315
  %114 = load ptr, ptr %12, align 8, !tbaa !228
  %115 = getelementptr inbounds nuw %struct.AF_CJKBlueRec_, ptr %114, i32 0, i32 1
  %116 = getelementptr inbounds nuw %struct.AF_WidthRec_, ptr %115, i32 0, i32 2
  store i64 %113, ptr %116, align 8, !tbaa !316
  %117 = load ptr, ptr %12, align 8, !tbaa !228
  %118 = getelementptr inbounds nuw %struct.AF_CJKBlueRec_, ptr %117, i32 0, i32 2
  %119 = load i32, ptr %118, align 8, !tbaa !230
  %120 = and i32 %119, -2
  store i32 %120, ptr %118, align 8, !tbaa !230
  %121 = load ptr, ptr %12, align 8, !tbaa !228
  %122 = getelementptr inbounds nuw %struct.AF_CJKBlueRec_, ptr %121, i32 0, i32 0
  %123 = getelementptr inbounds nuw %struct.AF_WidthRec_, ptr %122, i32 0, i32 0
  %124 = load i64, ptr %123, align 8, !tbaa !311
  %125 = load ptr, ptr %12, align 8, !tbaa !228
  %126 = getelementptr inbounds nuw %struct.AF_CJKBlueRec_, ptr %125, i32 0, i32 1
  %127 = getelementptr inbounds nuw %struct.AF_WidthRec_, ptr %126, i32 0, i32 0
  %128 = load i64, ptr %127, align 8, !tbaa !314
  %129 = sub nsw i64 %124, %128
  %130 = trunc i64 %129 to i32
  %131 = load i64, ptr %7, align 8, !tbaa !42
  %132 = trunc i64 %131 to i32
  %133 = call i32 @FT_MulFix_x86_64(i32 noundef %130, i32 noundef %132)
  %134 = sext i32 %133 to i64
  store i64 %134, ptr %13, align 8, !tbaa !42
  %135 = load i64, ptr %13, align 8, !tbaa !42
  %136 = icmp sle i64 %135, 48
  br i1 %136, label %137, label %216

137:                                              ; preds = %69
  %138 = load i64, ptr %13, align 8, !tbaa !42
  %139 = icmp sge i64 %138, -48
  br i1 %139, label %140, label %216

140:                                              ; preds = %137
  call void @llvm.lifetime.start.p0(i64 8, ptr %14) #10
  call void @llvm.lifetime.start.p0(i64 8, ptr %15) #10
  %141 = load ptr, ptr %12, align 8, !tbaa !228
  %142 = getelementptr inbounds nuw %struct.AF_CJKBlueRec_, ptr %141, i32 0, i32 0
  %143 = getelementptr inbounds nuw %struct.AF_WidthRec_, ptr %142, i32 0, i32 1
  %144 = load i64, ptr %143, align 8, !tbaa !312
  %145 = add nsw i64 %144, 32
  %146 = and i64 %145, -64
  %147 = load ptr, ptr %12, align 8, !tbaa !228
  %148 = getelementptr inbounds nuw %struct.AF_CJKBlueRec_, ptr %147, i32 0, i32 0
  %149 = getelementptr inbounds nuw %struct.AF_WidthRec_, ptr %148, i32 0, i32 2
  store i64 %146, ptr %149, align 8, !tbaa !313
  %150 = load ptr, ptr %12, align 8, !tbaa !228
  %151 = getelementptr inbounds nuw %struct.AF_CJKBlueRec_, ptr %150, i32 0, i32 0
  %152 = getelementptr inbounds nuw %struct.AF_WidthRec_, ptr %151, i32 0, i32 2
  %153 = load i64, ptr %152, align 8, !tbaa !313
  %154 = load i64, ptr %7, align 8, !tbaa !42
  %155 = call i64 @FT_DivFix(i64 noundef %153, i64 noundef %154)
  %156 = load ptr, ptr %12, align 8, !tbaa !228
  %157 = getelementptr inbounds nuw %struct.AF_CJKBlueRec_, ptr %156, i32 0, i32 1
  %158 = getelementptr inbounds nuw %struct.AF_WidthRec_, ptr %157, i32 0, i32 0
  %159 = load i64, ptr %158, align 8, !tbaa !314
  %160 = sub nsw i64 %155, %159
  store i64 %160, ptr %14, align 8, !tbaa !42
  %161 = load i64, ptr %14, align 8, !tbaa !42
  store i64 %161, ptr %15, align 8, !tbaa !42
  %162 = load i64, ptr %14, align 8, !tbaa !42
  %163 = icmp slt i64 %162, 0
  br i1 %163, label %164, label %167

164:                                              ; preds = %140
  %165 = load i64, ptr %15, align 8, !tbaa !42
  %166 = sub nsw i64 0, %165
  store i64 %166, ptr %15, align 8, !tbaa !42
  br label %167

167:                                              ; preds = %164, %140
  %168 = load i64, ptr %15, align 8, !tbaa !42
  %169 = trunc i64 %168 to i32
  %170 = load i64, ptr %7, align 8, !tbaa !42
  %171 = trunc i64 %170 to i32
  %172 = call i32 @FT_MulFix_x86_64(i32 noundef %169, i32 noundef %171)
  %173 = sext i32 %172 to i64
  store i64 %173, ptr %15, align 8, !tbaa !42
  br label %174

174:                                              ; preds = %167
  br label %175

175:                                              ; preds = %174
  br label %176

176:                                              ; preds = %175
  %177 = load i64, ptr %15, align 8, !tbaa !42
  %178 = icmp slt i64 %177, 32
  br i1 %178, label %179, label %180

179:                                              ; preds = %176
  store i64 0, ptr %15, align 8, !tbaa !42
  br label %184

180:                                              ; preds = %176
  %181 = load i64, ptr %15, align 8, !tbaa !42
  %182 = add nsw i64 %181, 32
  %183 = and i64 %182, -64
  store i64 %183, ptr %15, align 8, !tbaa !42
  br label %184

184:                                              ; preds = %180, %179
  br label %185

185:                                              ; preds = %184
  br label %186

186:                                              ; preds = %185
  br label %187

187:                                              ; preds = %186
  %188 = load i64, ptr %14, align 8, !tbaa !42
  %189 = icmp slt i64 %188, 0
  br i1 %189, label %190, label %193

190:                                              ; preds = %187
  %191 = load i64, ptr %15, align 8, !tbaa !42
  %192 = sub nsw i64 0, %191
  store i64 %192, ptr %15, align 8, !tbaa !42
  br label %193

193:                                              ; preds = %190, %187
  %194 = load ptr, ptr %12, align 8, !tbaa !228
  %195 = getelementptr inbounds nuw %struct.AF_CJKBlueRec_, ptr %194, i32 0, i32 0
  %196 = getelementptr inbounds nuw %struct.AF_WidthRec_, ptr %195, i32 0, i32 2
  %197 = load i64, ptr %196, align 8, !tbaa !313
  %198 = load i64, ptr %15, align 8, !tbaa !42
  %199 = sub nsw i64 %197, %198
  %200 = load ptr, ptr %12, align 8, !tbaa !228
  %201 = getelementptr inbounds nuw %struct.AF_CJKBlueRec_, ptr %200, i32 0, i32 1
  %202 = getelementptr inbounds nuw %struct.AF_WidthRec_, ptr %201, i32 0, i32 2
  store i64 %199, ptr %202, align 8, !tbaa !316
  br label %203

203:                                              ; preds = %193
  br label %204

204:                                              ; preds = %203
  br label %205

205:                                              ; preds = %204
  br label %206

206:                                              ; preds = %205
  br label %207

207:                                              ; preds = %206
  br label %208

208:                                              ; preds = %207
  br label %209

209:                                              ; preds = %208
  br label %210

210:                                              ; preds = %209
  br label %211

211:                                              ; preds = %210
  %212 = load ptr, ptr %12, align 8, !tbaa !228
  %213 = getelementptr inbounds nuw %struct.AF_CJKBlueRec_, ptr %212, i32 0, i32 2
  %214 = load i32, ptr %213, align 8, !tbaa !230
  %215 = or i32 %214, 1
  store i32 %215, ptr %213, align 8, !tbaa !230
  call void @llvm.lifetime.end.p0(i64 8, ptr %15) #10
  call void @llvm.lifetime.end.p0(i64 8, ptr %14) #10
  br label %216

216:                                              ; preds = %211, %137, %69
  call void @llvm.lifetime.end.p0(i64 8, ptr %13) #10
  call void @llvm.lifetime.end.p0(i64 8, ptr %12) #10
  br label %217

217:                                              ; preds = %216
  %218 = load i32, ptr %10, align 4, !tbaa !43
  %219 = add i32 %218, 1
  store i32 %219, ptr %10, align 4, !tbaa !43
  br label %63, !llvm.loop !317

220:                                              ; preds = %63
  store i32 0, ptr %11, align 4
  br label %221

221:                                              ; preds = %220, %49
  call void @llvm.lifetime.end.p0(i64 4, ptr %10) #10
  call void @llvm.lifetime.end.p0(i64 8, ptr %9) #10
  call void @llvm.lifetime.end.p0(i64 8, ptr %8) #10
  call void @llvm.lifetime.end.p0(i64 8, ptr %7) #10
  %222 = load i32, ptr %11, align 4
  switch i32 %222, label %224 [
    i32 0, label %223
    i32 1, label %223
  ]

223:                                              ; preds = %221, %221
  ret void

224:                                              ; preds = %221
  unreachable
}