; Function Attrs: nounwind uwtable
define internal fastcc void @af_cjk_metrics_scale_dim(ptr noundef captures(none) %0, ptr noundef readonly captures(none) %1, i32 noundef range(i32 0, 2) %2) unnamed_addr #0 {
  %4 = icmp eq i32 %2, 0
  %.061.in.v = select i1 %4, i64 24, i64 32
  %.061.in = getelementptr inbounds nuw i8, ptr %1, i64 %.061.in.v
  %.060.in.v = select i1 %4, i64 8, i64 16
  %.060.in = getelementptr inbounds nuw i8, ptr %1, i64 %.060.in.v
  %.060 = load i64, ptr %.060.in, align 8, !tbaa !60
  %.061 = load i64, ptr %.061.in, align 8, !tbaa !60
  %5 = getelementptr inbounds nuw i8, ptr %0, i64 80
  %6 = zext nneg i32 %2 to i64
  %7 = getelementptr inbounds nuw [2 x %struct.AF_CJKAxisRec_], ptr %5, i64 0, i64 %6
  %8 = getelementptr inbounds nuw i8, ptr %7, i64 880
  %9 = load i64, ptr %8, align 8, !tbaa !375
  %10 = icmp eq i64 %9, %.060
  br i1 %10, label %11, label %15

11:                                               ; preds = %3
  %12 = getelementptr inbounds nuw i8, ptr %7, i64 888
  %13 = load i64, ptr %12, align 8, !tbaa !376
  %14 = icmp eq i64 %13, %.061
  br i1 %14, label %.loopexit, label %15

15:                                               ; preds = %11, %3
  store i64 %.060, ptr %8, align 8, !tbaa !375
  %16 = getelementptr inbounds nuw i8, ptr %7, i64 888
  store i64 %.061, ptr %16, align 8, !tbaa !376
  store i64 %.060, ptr %7, align 8, !tbaa !76
  %17 = getelementptr inbounds nuw i8, ptr %7, i64 8
  store i64 %.061, ptr %17, align 8, !tbaa !78
  %18 = getelementptr inbounds nuw i8, ptr %7, i64 428
  %19 = load i32, ptr %18, align 4, !tbaa !63
  %.not = icmp eq i32 %19, 0
  br i1 %.not, label %.loopexit, label %.lr.ph

.lr.ph:                                           ; preds = %15
  %20 = getelementptr inbounds nuw i8, ptr %7, i64 432
  %sext66 = shl i64 %.060, 32
  %21 = ashr exact i64 %sext66, 32
  br label %22

22:                                               ; preds = %.lr.ph, %82
  %23 = phi i32 [ %19, %.lr.ph ], [ %83, %82 ]
  %indvars.iv = phi i64 [ 0, %.lr.ph ], [ %indvars.iv.next, %82 ]
  %24 = getelementptr inbounds nuw [8 x %struct.AF_CJKBlueRec_], ptr %20, i64 0, i64 %indvars.iv
  %25 = load i64, ptr %24, align 8, !tbaa !377
  %sext = shl i64 %25, 32
  %26 = ashr exact i64 %sext, 32
  %27 = mul nsw i64 %26, %21
  %28 = ashr i64 %27, 63
  %29 = add nsw i64 %27, 32768
  %30 = add nsw i64 %29, %28
  %31 = shl i64 %30, 16
  %32 = ashr i64 %31, 32
  %33 = add nsw i64 %32, %.061
  %34 = getelementptr inbounds nuw i8, ptr %24, i64 8
  store i64 %33, ptr %34, align 8, !tbaa !379
  %35 = getelementptr inbounds nuw i8, ptr %24, i64 16
  store i64 %33, ptr %35, align 8, !tbaa !380
  %36 = getelementptr inbounds nuw i8, ptr %24, i64 24
  %37 = load i64, ptr %36, align 8, !tbaa !381
  %sext68 = shl i64 %37, 32
  %38 = ashr exact i64 %sext68, 32
  %39 = mul nsw i64 %38, %21
  %40 = ashr i64 %39, 63
  %41 = add nsw i64 %39, 32768
  %42 = add nsw i64 %41, %40
  %43 = shl i64 %42, 16
  %44 = ashr i64 %43, 32
  %45 = add nsw i64 %44, %.061
  %46 = getelementptr inbounds nuw i8, ptr %24, i64 32
  store i64 %45, ptr %46, align 8, !tbaa !382
  %47 = getelementptr inbounds nuw i8, ptr %24, i64 40
  store i64 %45, ptr %47, align 8, !tbaa !383
  %48 = getelementptr inbounds nuw i8, ptr %24, i64 48
  %49 = load i32, ptr %48, align 8, !tbaa !384
  %50 = and i32 %49, -2
  store i32 %50, ptr %48, align 8, !tbaa !384
  %51 = sub nsw i64 %25, %37
  %sext70 = shl i64 %51, 32
  %52 = ashr exact i64 %sext70, 32
  %53 = mul nsw i64 %52, %21
  %54 = ashr i64 %53, 63
  %55 = add nsw i64 %53, 32768
  %56 = add nsw i64 %55, %54
  %57 = lshr i64 %56, 16
  %58 = trunc i64 %57 to i32
  %59 = add i32 %58, 48
  %or.cond = icmp ult i32 %59, 97
  br i1 %or.cond, label %60, label %82

60:                                               ; preds = %22
  %61 = add nsw i64 %33, 32
  %62 = and i64 %61, -64
  store i64 %62, ptr %35, align 8, !tbaa !380
  %63 = tail call i64 @FT_DivFix(i64 noundef %62, i64 noundef %.060) #20
  %64 = load i64, ptr %36, align 8, !tbaa !381
  %65 = sub nsw i64 %63, %64
  %66 = icmp slt i64 %65, 0
  %spec.select = tail call i64 @llvm.abs.i64(i64 %65, i1 true)
  %sext71 = shl i64 %spec.select, 32
  %67 = ashr exact i64 %sext71, 32
  %68 = mul nsw i64 %67, %21
  %69 = ashr i64 %68, 63
  %70 = add nsw i64 %68, 32768
  %71 = add nsw i64 %70, %69
  %72 = lshr i64 %71, 16
  %73 = trunc i64 %72 to i32
  %74 = icmp slt i32 %73, 32
  %narrow = add nuw nsw i64 %72, 32
  %75 = and i64 %narrow, 4294967232
  %.1 = select i1 %74, i64 0, i64 %75
  %76 = sub nsw i64 0, %.1
  %77 = select i1 %66, i64 %.1, i64 %76
  %78 = load i64, ptr %35, align 8, !tbaa !380
  %79 = add i64 %77, %78
  store i64 %79, ptr %47, align 8, !tbaa !383
  %80 = load i32, ptr %48, align 8, !tbaa !384
  %81 = or i32 %80, 1
  store i32 %81, ptr %48, align 8, !tbaa !384
  %.pre = load i32, ptr %18, align 4, !tbaa !63
  br label %82

82:                                               ; preds = %60, %22
  %83 = phi i32 [ %.pre, %60 ], [ %23, %22 ]
  %indvars.iv.next = add nuw nsw i64 %indvars.iv, 1
  %84 = zext i32 %83 to i64
  %85 = icmp samesign ult i64 %indvars.iv.next, %84
  br i1 %85, label %22, label %.loopexit, !llvm.loop !385

.loopexit:                                        ; preds = %82, %15, %11
  ret void
}